target datalayout = "e-m:e-p270:32:32-p271:32:32-p272:64:64-i64:64-i128:128-f80:128-n8:16:32:64-S128"
target triple = "x86_64-pc-linux-gnu"

%struct.Cec_ManS_t_ = type { i32, i32, i32, i32, ptr, ptr, ptr, ptr, [4 x ptr], [113 x i64], i32, i32, i32, i64, i64 }
%struct.Vec_Int_t_ = type { i32, i32, ptr }
%struct.Gia_Man_t_ = type { ptr, ptr, i32, i32, i32, i32, ptr, ptr, i32, i32, i32, ptr, ptr, %struct.Vec_Int_t_, %struct.Vec_Int_t_, i32, i32, i32, %struct.Vec_Int_t_, ptr, ptr, ptr, i32, i32, i32, i32, ptr, ptr, ptr, ptr, ptr, i32, i32, ptr, i32, ptr, ptr, ptr, ptr, ptr, ptr, ptr, ptr, ptr, ptr, ptr, ptr, ptr, ptr, ptr, ptr, ptr, ptr, %struct.Vec_Int_t_, %struct.Vec_Int_t_, ptr, ptr, ptr, ptr, ptr, ptr, ptr, ptr, ptr, ptr, ptr, ptr, ptr, ptr, ptr, ptr, ptr, ptr, ptr, ptr, ptr, i32, float, float, ptr, ptr, i32, ptr, ptr, ptr, ptr, ptr, ptr, ptr, ptr, ptr, ptr, ptr, ptr, ptr, ptr, ptr, i64, i64, ptr, ptr, i32, i32, i32, i32, i32, i32, i32, i32, i32, i32, i32, i32, ptr, ptr, ptr, ptr, ptr, ptr, ptr, ptr, i32, i32, i32, ptr, i32, i32, ptr, ptr, ptr, ptr, ptr, ptr, i32, i32, ptr, %struct.Vec_Int_t_, %struct.Vec_Int_t_, %struct.Vec_Int_t_, ptr, ptr, ptr, i32, i32, i32, i32, ptr, ptr, ptr, ptr, ptr }
%struct.timespec = type { i64, i64 }
%struct.Gia_Rpr_t_ = type { i32 }

@.str.4 = private unnamed_addr constant [21 x i8] c"Detected %d CEXes.  \00", align 1
@.str.5 = private unnamed_addr constant [6 x i8] c"Time \00", align 1
@.str.6 = private unnamed_addr constant [6 x i8] c"Sat  \00", align 1
@.str.7 = private unnamed_addr constant [6 x i8] c"Unsat\00", align 1
@.str.8 = private unnamed_addr constant [5 x i8] c"%s =\00", align 1
@.str.9 = private unnamed_addr constant [11 x i8] c"%9.2f sec\0A\00", align 1

; Function Attrs: inlinehint nounwind uwtable
define internal i32 @Gia_ObjRepr(ptr noundef %0, i32 noundef %1) #4 {
  %3 = alloca ptr, align 8
  %4 = alloca i32, align 4
  store ptr %0, ptr %3, align 8, !tbaa !3
  store i32 %1, ptr %4, align 4, !tbaa !8
  %5 = load ptr, ptr %3, align 8, !tbaa !3
  %6 = getelementptr inbounds nuw %struct.Gia_Man_t_, ptr %5, i32 0, i32 27
  %7 = load ptr, ptr %6, align 8, !tbaa !97
  %8 = load i32, ptr %4, align 4, !tbaa !8
  %9 = sext i32 %8 to i64
  %10 = getelementptr inbounds %struct.Gia_Rpr_t_, ptr %7, i64 %9
  %11 = load i32, ptr %10, align 4
  %12 = and i32 %11, 268435455
  ret i32 %12
}

; Function Attrs: inlinehint nounwind uwtable
define internal void @Abc_PrintTime(i32 noundef %0, ptr noundef %1, i64 noundef %2) #4 {
  %4 = alloca i32, align 4
  %5 = alloca ptr, align 8
  %6 = alloca i64, align 8
  store i32 %0, ptr %4, align 4, !tbaa !8
  store ptr %1, ptr %5, align 8, !tbaa !89
  store i64 %2, ptr %6, align 8, !tbaa !26
  %7 = load ptr, ptr %5, align 8, !tbaa !89
  call void (i32, ptr, ...) @Abc_Print(i32 noundef 1, ptr noundef @.str.8, ptr noundef %7)
  %8 = load i64, ptr %6, align 8, !tbaa !26
  %9 = sitofp i64 %8 to double
  %10 = fmul double 1.000000e+00, %9
  %11 = fdiv double %10, 1.000000e+06
  call void (i32, ptr, ...) @Abc_Print(i32 noundef 1, ptr noundef @.str.9, double noundef %11)
  ret void
}

; Function Attrs: inlinehint nounwind uwtable
define internal i32 @Gia_ObjNext(ptr noundef %0, i32 noundef %1) #4 {
  %3 = alloca ptr, align 8
  %4 = alloca i32, align 4
  store ptr %0, ptr %3, align 8, !tbaa !3
  store i32 %1, ptr %4, align 4, !tbaa !8
  %5 = load ptr, ptr %3, align 8, !tbaa !3
  %6 = getelementptr inbounds nuw %struct.Gia_Man_t_, ptr %5, i32 0, i32 28
  %7 = load ptr, ptr %6, align 8, !tbaa !88
  %8 = load i32, ptr %4, align 4, !tbaa !8
  %9 = sext i32 %8 to i64
  %10 = getelementptr inbounds i32, ptr %7, i64 %9
  %11 = load i32, ptr %10, align 4, !tbaa !8
  ret i32 %11
}

; Function Attrs: inlinehint nounwind uwtable
define internal i32 @Gia_ObjIsHead(ptr noundef %0, i32 noundef %1) #4 {
  %3 = alloca ptr, align 8
  %4 = alloca i32, align 4
  store ptr %0, ptr %3, align 8, !tbaa !3
  store i32 %1, ptr %4, align 4, !tbaa !8
  %5 = load ptr, ptr %3, align 8, !tbaa !3
  %6 = load i32, ptr %4, align 4, !tbaa !8
  %7 = call i32 @Gia_ObjRepr(ptr noundef %5, i32 noundef %6)
  %8 = icmp eq i32 %7, 268435455
  br i1 %8, label %9, label %14

9:                                                ; preds = %2
  %10 = load ptr, ptr %3, align 8, !tbaa !3
  %11 = load i32, ptr %4, align 4, !tbaa !8
  %12 = call i32 @Gia_ObjNext(ptr noundef %10, i32 noundef %11)
  %13 = icmp sgt i32 %12, 0
  br label %14

14:                                               ; preds = %9, %2
  %15 = phi i1 [ false, %2 ], [ %13, %9 ]
  %16 = zext i1 %15 to i32
  ret i32 %16
}

; Function Attrs: inlinehint nounwind uwtable
define internal i32 @Gia_ManObjNum(ptr noundef %0) #4 {
  %2 = alloca ptr, align 8
  store ptr %0, ptr %2, align 8, !tbaa !3
  %3 = load ptr, ptr %2, align 8, !tbaa !3
  %4 = getelementptr inbounds nuw %struct.Gia_Man_t_, ptr %3, i32 0, i32 4
  %5 = load i32, ptr %4, align 8, !tbaa !41
  ret i32 %5
}

; Function Attrs: inlinehint nounwind uwtable
define internal i64 @Abc_Clock() #4 {
  %1 = alloca i64, align 8
  %2 = alloca %struct.timespec, align 8
  %3 = alloca i32, align 4
  %4 = alloca i64, align 8
  call void @llvm.lifetime.start.p0(i64 16, ptr %2) #11
  %5 = call i32 @clock_gettime(i32 noundef 1, ptr noundef %2) #11
  %6 = icmp slt i32 %5, 0
  br i1 %6, label %7, label %8

7:                                                ; preds = %0
  store i64 -1, ptr %1, align 8
  store i32 1, ptr %3, align 4
  br label %19

8:                                                ; preds = %0
  call void @llvm.lifetime.start.p0(i64 8, ptr %4) #11
  %9 = getelementptr inbounds nuw %struct.timespec, ptr %2, i32 0, i32 0
  %10 = load i64, ptr %9, align 8, !tbaa !94
  %11 = mul nsw i64 %10, 1000000
  store i64 %11, ptr %4, align 8, !tbaa !26
  %12 = getelementptr inbounds nuw %struct.timespec, ptr %2, i32 0, i32 1
  %13 = load i64, ptr %12, align 8, !tbaa !96
  %14 = mul nsw i64 %13, 1000000
  %15 = sdiv i64 %14, 1000000000
  %16 = load i64, ptr %4, align 8, !tbaa !26
  %17 = add nsw i64 %16, %15
  store i64 %17, ptr %4, align 8, !tbaa !26
  %18 = load i64, ptr %4, align 8, !tbaa !26
  store i64 %18, ptr %1, align 8
  store i32 1, ptr %3, align 4
  call void @llvm.lifetime.end.p0(i64 8, ptr %4) #11
  br label %19

19:                                               ; preds = %8, %7
  call void @llvm.lifetime.end.p0(i64 16, ptr %2) #11
  %20 = load i64, ptr %1, align 8
  ret i64 %20
}

; Function Attrs: nounwind uwtable
define void @Cec_ManSRunTest(ptr noundef %0) #0 {
  %2 = alloca ptr, align 8
  %3 = alloca i64, align 8
  %4 = alloca ptr, align 8
  %5 = alloca i32, align 4
  %6 = alloca i32, align 4
  %7 = alloca i32, align 4
  store ptr %0, ptr %2, align 8, !tbaa !3
  call void @llvm.lifetime.start.p0(i64 8, ptr %3) #11
  %8 = call i64 @Abc_Clock()
  store i64 %8, ptr %3, align 8, !tbaa !26
  call void @llvm.lifetime.start.p0(i64 8, ptr %4) #11
  call void @llvm.lifetime.start.p0(i64 4, ptr %5) #11
  call void @llvm.lifetime.start.p0(i64 4, ptr %6) #11
  call void @llvm.lifetime.start.p0(i64 4, ptr %7) #11
  store i32 1, ptr %7, align 4, !tbaa !8
  %9 = call i64 @Gia_ManRandomW(i32 noundef 1)
  %10 = load ptr, ptr %2, align 8, !tbaa !3
  %11 = load i32, ptr %7, align 4, !tbaa !8
  %12 = call ptr @Cec_ManSStart(ptr noundef %10, i32 noundef %11)
  store ptr %12, ptr %4, align 8, !tbaa !10
  store i32 0, ptr %5, align 4, !tbaa !8
  br label %13

13:                                               ; preds = %50, %1
  %14 = load i32, ptr %5, align 4, !tbaa !8
  %15 = load ptr, ptr %4, align 8, !tbaa !10
  %16 = getelementptr inbounds nuw %struct.Cec_ManS_t_, ptr %15, i32 0, i32 4
  %17 = load ptr, ptr %16, align 8, !tbaa !18
  %18 = call i32 @Gia_ManObjNum(ptr noundef %17)
  %19 = icmp slt i32 %14, %18
  br i1 %19, label %20, label %53

20:                                               ; preds = %13
  %21 = load ptr, ptr %4, align 8, !tbaa !10
  %22 = getelementptr inbounds nuw %struct.Cec_ManS_t_, ptr %21, i32 0, i32 4
  %23 = load ptr, ptr %22, align 8, !tbaa !18
  %24 = load i32, ptr %5, align 4, !tbaa !8
  %25 = call i32 @Gia_ObjIsHead(ptr noundef %23, i32 noundef %24)
  %26 = icmp ne i32 %25, 0
  br i1 %26, label %28, label %27

27:                                               ; preds = %20
  br label %49

28:                                               ; preds = %20
  %29 = load ptr, ptr %4, align 8, !tbaa !10
  %30 = getelementptr inbounds nuw %struct.Cec_ManS_t_, ptr %29, i32 0, i32 4
  %31 = load ptr, ptr %30, align 8, !tbaa !18
  %32 = load i32, ptr %5, align 4, !tbaa !8
  %33 = call i32 @Gia_ObjNext(ptr noundef %31, i32 noundef %32)
  store i32 %33, ptr %6, align 4, !tbaa !8
  br label %34

34:                                               ; preds = %42, %28
  %35 = load i32, ptr %6, align 4, !tbaa !8
  %36 = icmp sgt i32 %35, 0
  br i1 %36, label %37, label %48

37:                                               ; preds = %34
  %38 = load ptr, ptr %4, align 8, !tbaa !10
  %39 = load i32, ptr %5, align 4, !tbaa !8
  %40 = load i32, ptr %6, align 4, !tbaa !8
  %41 = call i32 @Cec_ManSRunSim(ptr noundef %38, i32 noundef %39, i32 noundef %40)
  br label %42

42:                                               ; preds = %37
  %43 = load ptr, ptr %4, align 8, !tbaa !10
  %44 = getelementptr inbounds nuw %struct.Cec_ManS_t_, ptr %43, i32 0, i32 4
  %45 = load ptr, ptr %44, align 8, !tbaa !18
  %46 = load i32, ptr %6, align 4, !tbaa !8
  %47 = call i32 @Gia_ObjNext(ptr noundef %45, i32 noundef %46)
  store i32 %47, ptr %6, align 4, !tbaa !8
  br label %34, !llvm.loop !86

48:                                               ; preds = %34
  br label %49

49:                                               ; preds = %48, %27
  br label %50

50:                                               ; preds = %49
  %51 = load i32, ptr %5, align 4, !tbaa !8
  %52 = add nsw i32 %51, 1
  store i32 %52, ptr %5, align 4, !tbaa !8
  br label %13, !llvm.loop !87

53:                                               ; preds = %13
  %54 = load ptr, ptr %4, align 8, !tbaa !10
  %55 = getelementptr inbounds nuw %struct.Cec_ManS_t_, ptr %54, i32 0, i32 12
  %56 = load i32, ptr %55, align 8, !tbaa !83
  %57 = call i32 (ptr, ...) @printf(ptr noundef @.str.4, i32 noundef %56)
  %58 = call i64 @Abc_Clock()
  %59 = load i64, ptr %3, align 8, !tbaa !26
  %60 = sub nsw i64 %58, %59
  call void @Abc_PrintTime(i32 noundef 1, ptr noundef @.str.5, i64 noundef %60)
  %61 = load ptr, ptr %4, align 8, !tbaa !10
  %62 = getelementptr inbounds nuw %struct.Cec_ManS_t_, ptr %61, i32 0, i32 13
  %63 = load i64, ptr %62, align 8, !tbaa !81
  call void @Abc_PrintTime(i32 noundef 1, ptr noundef @.str.6, i64 noundef %63)
  %64 = load ptr, ptr %4, align 8, !tbaa !10
  %65 = getelementptr inbounds nuw %struct.Cec_ManS_t_, ptr %64, i32 0, i32 14
  %66 = load i64, ptr %65, align 8, !tbaa !82
  call void @Abc_PrintTime(i32 noundef 1, ptr noundef @.str.7, i64 noundef %66)
  %67 = load ptr, ptr %4, align 8, !tbaa !10
  call void @Cec_ManSStop(ptr noundef %67)
  call void @llvm.lifetime.end.p0(i64 4, ptr %7) #11
  call void @llvm.lifetime.end.p0(i64 4, ptr %6) #11
  call void @llvm.lifetime.end.p0(i64 4, ptr %5) #11
  call void @llvm.lifetime.end.p0(i64 8, ptr %4) #11
  call void @llvm.lifetime.end.p0(i64 8, ptr %3) #11
  ret void
}