; Function Attrs: nounwind uwtable
define void @Cec_ManSRunTest(ptr noundef %0) local_unnamed_addr #0 {
  %2 = alloca %struct.timespec, align 8
  %3 = alloca %struct.timespec, align 8
  call void @llvm.lifetime.start.p0(i64 16, ptr nonnull %3) #20
  %4 = call i32 @clock_gettime(i32 noundef 1, ptr noundef nonnull %3) #20
  %5 = icmp slt i32 %4, 0
  br i1 %5, label %Abc_Clock.exit, label %6

6:                                                ; preds = %1
  %7 = load i64, ptr %3, align 8, !tbaa !73
  %.neg25 = mul i64 %7, -1000000
  %8 = getelementptr inbounds nuw i8, ptr %3, i64 8
  %9 = load i64, ptr %8, align 8, !tbaa !75
  %.neg = sdiv i64 %9, -1000
  %.neg26 = add i64 %.neg, %.neg25
  br label %Abc_Clock.exit

Abc_Clock.exit:                                   ; preds = %1, %6
  %.0.i.neg = phi i64 [ %.neg26, %6 ], [ 1, %1 ]
  call void @llvm.lifetime.end.p0(i64 16, ptr nonnull %3) #20
  %10 = call i64 @Gia_ManRandomW(i32 noundef 1) #20
  %11 = call ptr @Cec_ManSStart(ptr noundef %0, i32 noundef 1)
  %12 = getelementptr inbounds nuw i8, ptr %11, i64 16
  %13 = load ptr, ptr %12, align 8, !tbaa !14
  %14 = getelementptr i8, ptr %13, i64 24
  %.val29 = load i32, ptr %14, align 8, !tbaa !26
  %15 = icmp sgt i32 %.val29, 0
  br i1 %15, label %.lr.ph32, label %._crit_edge

.lr.ph32:                                         ; preds = %Abc_Clock.exit, %Gia_ObjIsHead.exit.thread
  %16 = phi ptr [ %33, %Gia_ObjIsHead.exit.thread ], [ %13, %Abc_Clock.exit ]
  %indvars.iv = phi i64 [ %indvars.iv.next, %Gia_ObjIsHead.exit.thread ], [ 0, %Abc_Clock.exit ]
  %17 = getelementptr i8, ptr %16, i64 192
  %.val.i = load ptr, ptr %17, align 8, !tbaa !80
  %18 = getelementptr inbounds nuw %struct.Gia_Rpr_t_, ptr %.val.i, i64 %indvars.iv
  %19 = load i32, ptr %18, align 4
  %20 = and i32 %19, 268435455
  %21 = icmp eq i32 %20, 268435455
  br i1 %21, label %Gia_ObjIsHead.exit, label %Gia_ObjIsHead.exit.thread

Gia_ObjIsHead.exit:                               ; preds = %.lr.ph32
  %22 = getelementptr i8, ptr %16, i64 200
  %.val3.i = load ptr, ptr %22, align 8, !tbaa !81
  %23 = getelementptr inbounds nuw i32, ptr %.val3.i, i64 %indvars.iv
  %24 = load i32, ptr %23, align 4, !tbaa !55
  %25 = icmp slt i32 %24, 1
  br i1 %25, label %Gia_ObjIsHead.exit.thread, label %.lr.ph.preheader

.lr.ph.preheader:                                 ; preds = %Gia_ObjIsHead.exit
  %26 = trunc nuw nsw i64 %indvars.iv to i32
  br label %.lr.ph

.lr.ph:                                           ; preds = %.lr.ph.preheader, %.lr.ph
  %.01928 = phi i32 [ %.019, %.lr.ph ], [ %24, %.lr.ph.preheader ]
  %27 = call i32 @Cec_ManSRunSim(ptr noundef nonnull %11, i32 noundef %26, i32 noundef %.01928)
  %28 = load ptr, ptr %12, align 8, !tbaa !14
  %29 = getelementptr i8, ptr %28, i64 200
  %.val21 = load ptr, ptr %29, align 8, !tbaa !81
  %30 = zext nneg i32 %.01928 to i64
  %31 = getelementptr inbounds nuw i32, ptr %.val21, i64 %30
  %.019 = load i32, ptr %31, align 4, !tbaa !55
  %32 = icmp sgt i32 %.019, 0
  br i1 %32, label %.lr.ph, label %Gia_ObjIsHead.exit.thread, !llvm.loop !82

Gia_ObjIsHead.exit.thread:                        ; preds = %.lr.ph, %.lr.ph32, %Gia_ObjIsHead.exit
  %33 = phi ptr [ %16, %.lr.ph32 ], [ %16, %Gia_ObjIsHead.exit ], [ %28, %.lr.ph ]
  %indvars.iv.next = add nuw nsw i64 %indvars.iv, 1
  %34 = getelementptr i8, ptr %33, i64 24
  %.val = load i32, ptr %34, align 8, !tbaa !26
  %35 = sext i32 %.val to i64
  %36 = icmp slt i64 %indvars.iv.next, %35
  br i1 %36, label %.lr.ph32, label %._crit_edge, !llvm.loop !83

._crit_edge:                                      ; preds = %Gia_ObjIsHead.exit.thread, %Abc_Clock.exit
  %37 = getelementptr inbounds nuw i8, ptr %11, i64 992
  %38 = load i32, ptr %37, align 8, !tbaa !78
  %39 = call i32 (ptr, ...) @printf(ptr noundef nonnull dereferenceable(1) @.str.4, i32 noundef %38)
  call void @llvm.lifetime.start.p0(i64 16, ptr nonnull %2) #20
  %40 = call i32 @clock_gettime(i32 noundef 1, ptr noundef nonnull %2) #20
  %41 = icmp slt i32 %40, 0
  br i1 %41, label %Abc_Clock.exit23, label %42

42:                                               ; preds = %._crit_edge
  %43 = load i64, ptr %2, align 8, !tbaa !73
  %44 = mul nsw i64 %43, 1000000
  %45 = getelementptr inbounds nuw i8, ptr %2, i64 8
  %46 = load i64, ptr %45, align 8, !tbaa !75
  %47 = sdiv i64 %46, 1000
  %48 = add nsw i64 %47, %44
  br label %Abc_Clock.exit23

Abc_Clock.exit23:                                 ; preds = %._crit_edge, %42
  %.0.i22 = phi i64 [ %48, %42 ], [ -1, %._crit_edge ]
  call void @llvm.lifetime.end.p0(i64 16, ptr nonnull %2) #20
  %49 = add i64 %.0.i22, %.0.i.neg
  call void (i32, ptr, ...) @Abc_Print(i32 poison, ptr noundef nonnull @.str.8, ptr noundef nonnull @.str.5)
  %50 = sitofp i64 %49 to double
  %51 = fdiv double %50, 1.000000e+06
  call void (i32, ptr, ...) @Abc_Print(i32 poison, ptr noundef nonnull @.str.9, double noundef %51)
  %52 = getelementptr inbounds nuw i8, ptr %11, i64 1000
  %53 = load i64, ptr %52, align 8, !tbaa !77
  call void (i32, ptr, ...) @Abc_Print(i32 poison, ptr noundef nonnull @.str.8, ptr noundef nonnull @.str.6)
  %54 = sitofp i64 %53 to double
  %55 = fdiv double %54, 1.000000e+06
  call void (i32, ptr, ...) @Abc_Print(i32 poison, ptr noundef nonnull @.str.9, double noundef %55)
  %56 = getelementptr inbounds nuw i8, ptr %11, i64 1008
  %57 = load i64, ptr %56, align 8, !tbaa !76
  call void (i32, ptr, ...) @Abc_Print(i32 poison, ptr noundef nonnull @.str.8, ptr noundef nonnull @.str.7)
  %58 = sitofp i64 %57 to double
  %59 = fdiv double %58, 1.000000e+06
  call void (i32, ptr, ...) @Abc_Print(i32 poison, ptr noundef nonnull @.str.9, double noundef %59)
  call void @Cec_ManSStop(ptr noundef nonnull %11)
  ret void
}